; Function Attrs: null_pointer_is_valid sspstrong uwtable
define internal i32 @dissect_header_alg(ptr noundef %0, ptr noundef %1, ptr noundef %2, ptr readnone captures(none) %3) #0 {
  %5 = alloca i32, align 4
  call void @llvm.lifetime.start.p0(i64 4, ptr nonnull %5) #8
  store i32 0, ptr %5, align 4
  %6 = getelementptr inbounds nuw i8, ptr %1, i64 408
  %7 = load ptr, ptr %6, align 8
  %8 = call ptr @wscbor_chunk_read(ptr noundef %7, ptr noundef %0, ptr noundef nonnull %5)
  %9 = getelementptr inbounds nuw i8, ptr %8, i64 40
  %10 = load i32, ptr %9, align 8
  switch i32 %10, label %dissect_value_alg.exit [
    i32 0, label %11
    i32 1, label %11
    i32 3, label %16
  ]

11:                                               ; preds = %4, %4
  %12 = load ptr, ptr %6, align 8
  %13 = call ptr @wscbor_require_int64(ptr noundef %12, ptr noundef %8)
  %14 = load i32, ptr @hf_hdr_alg_int, align 4
  %15 = call ptr @proto_tree_add_cbor_int64(ptr noundef %2, i32 noundef %14, ptr noundef %1, ptr noundef %0, ptr noundef %8, ptr noundef %13)
  br label %dissect_value_alg.exit

16:                                               ; preds = %4
  %17 = load i32, ptr @hf_hdr_alg_tstr, align 4
  %18 = call ptr @proto_tree_add_cbor_tstr(ptr noundef %2, i32 noundef %17, ptr noundef %1, ptr noundef %0, ptr noundef %8)
  br label %dissect_value_alg.exit

dissect_value_alg.exit:                           ; preds = %4, %11, %16
  %19 = load i32, ptr %5, align 4
  call void @llvm.lifetime.end.p0(i64 4, ptr nonnull %5) #8
  ret i32 %19
}